; Function Attrs: mustprogress nofree norecurse nosync nounwind willreturn memory(argmem: readwrite) uwtable
define dso_local void @archive_entry_unset_size(ptr noundef captures(none) initializes((16, 20), (112, 120)) %0) local_unnamed_addr #7 {
  %2 = getelementptr inbounds nuw i8, ptr %0, i64 16
  store i32 0, ptr %2, align 8, !tbaa !78
  %3 = getelementptr inbounds nuw i8, ptr %0, i64 112
  store i64 0, ptr %3, align 8, !tbaa !76
  %4 = getelementptr inbounds nuw i8, ptr %0, i64 192
  %5 = load i32, ptr %4, align 8, !tbaa !31
  %6 = and i32 %5, -65
  store i32 %6, ptr %4, align 8, !tbaa !31
  ret void
}